target datalayout = "e-m:e-p270:32:32-p271:32:32-p272:64:64-i64:64-i128:128-f80:128-n8:16:32:64-S128"
target triple = "x86_64-pc-linux-gnu"

@hf_ipmi_se_XX_thr_lnc = internal global i32 0, align 4
@hf_ipmi_se_XX_thr_lc = internal global i32 0, align 4
@hf_ipmi_se_XX_thr_lnr = internal global i32 0, align 4
@hf_ipmi_se_XX_thr_unc = internal global i32 0, align 4
@hf_ipmi_se_XX_thr_uc = internal global i32 0, align 4
@hf_ipmi_se_XX_thr_unr = internal global i32 0, align 4
@ett_ipmi_se_XX_mask = internal global i32 0, align 4
@.str.676 = private unnamed_addr constant [5 x i8] c"None\00", align 1
@add_thresholds.threshold_mask = internal constant [7 x ptr] [ptr @hf_ipmi_se_XX_m_unr, ptr @hf_ipmi_se_XX_m_uc, ptr @hf_ipmi_se_XX_m_unc, ptr @hf_ipmi_se_XX_m_lnr, ptr @hf_ipmi_se_XX_m_lc, ptr @hf_ipmi_se_XX_m_lnc, ptr null], align 16

; Function Attrs: null_pointer_is_valid sspstrong uwtable
define internal void @add_thresholds(ptr noundef %0, i32 noundef %1, ptr noundef %2, ptr noundef %3) #0 {
  %5 = alloca ptr, align 8
  %6 = alloca i32, align 4
  %7 = alloca ptr, align 8
  %8 = alloca ptr, align 8
  store ptr %0, ptr %5, align 8
  store i32 %1, ptr %6, align 4
  store ptr %2, ptr %7, align 8
  store ptr %3, ptr %8, align 8
  %9 = load ptr, ptr %7, align 8
  %10 = load ptr, ptr %5, align 8
  %11 = load i32, ptr %6, align 4
  %12 = load ptr, ptr %8, align 8
  %13 = load i32, ptr @ett_ipmi_se_XX_mask, align 4
  %14 = call ptr @proto_tree_add_bitmask_text(ptr noundef %9, ptr noundef %10, i32 noundef %11, i32 noundef 1, ptr noundef %12, ptr noundef @.str.676, i32 noundef %13, ptr noundef @add_thresholds.threshold_mask, i32 noundef -2147483648, i32 noundef 0)
  %15 = load ptr, ptr %7, align 8
  %16 = load i32, ptr @hf_ipmi_se_XX_thr_lnc, align 4
  %17 = load ptr, ptr %5, align 8
  %18 = load i32, ptr %6, align 4
  %19 = add i32 %18, 1
  %20 = call ptr @proto_tree_add_item(ptr noundef %15, i32 noundef %16, ptr noundef %17, i32 noundef %19, i32 noundef 1, i32 noundef -2147483648)
  %21 = load ptr, ptr %7, align 8
  %22 = load i32, ptr @hf_ipmi_se_XX_thr_lc, align 4
  %23 = load ptr, ptr %5, align 8
  %24 = load i32, ptr %6, align 4
  %25 = add i32 %24, 2
  %26 = call ptr @proto_tree_add_item(ptr noundef %21, i32 noundef %22, ptr noundef %23, i32 noundef %25, i32 noundef 1, i32 noundef -2147483648)
  %27 = load ptr, ptr %7, align 8
  %28 = load i32, ptr @hf_ipmi_se_XX_thr_lnr, align 4
  %29 = load ptr, ptr %5, align 8
  %30 = load i32, ptr %6, align 4
  %31 = add i32 %30, 3
  %32 = call ptr @proto_tree_add_item(ptr noundef %27, i32 noundef %28, ptr noundef %29, i32 noundef %31, i32 noundef 1, i32 noundef -2147483648)
  %33 = load ptr, ptr %7, align 8
  %34 = load i32, ptr @hf_ipmi_se_XX_thr_unc, align 4
  %35 = load ptr, ptr %5, align 8
  %36 = load i32, ptr %6, align 4
  %37 = add i32 %36, 4
  %38 = call ptr @proto_tree_add_item(ptr noundef %33, i32 noundef %34, ptr noundef %35, i32 noundef %37, i32 noundef 1, i32 noundef -2147483648)
  %39 = load ptr, ptr %7, align 8
  %40 = load i32, ptr @hf_ipmi_se_XX_thr_uc, align 4
  %41 = load ptr, ptr %5, align 8
  %42 = load i32, ptr %6, align 4
  %43 = add i32 %42, 5
  %44 = call ptr @proto_tree_add_item(ptr noundef %39, i32 noundef %40, ptr noundef %41, i32 noundef %43, i32 noundef 1, i32 noundef -2147483648)
  %45 = load ptr, ptr %7, align 8
  %46 = load i32, ptr @hf_ipmi_se_XX_thr_unr, align 4
  %47 = load ptr, ptr %5, align 8
  %48 = load i32, ptr %6, align 4
  %49 = add i32 %48, 6
  %50 = call ptr @proto_tree_add_item(ptr noundef %45, i32 noundef %46, ptr noundef %47, i32 noundef %49, i32 noundef 1, i32 noundef -2147483648)
  ret void
}