; Function Attrs: null_pointer_is_valid sspstrong uwtable
define internal fastcc void @add_thresholds(ptr noundef %0, i32 noundef range(i32 0, 2) %1, ptr noundef %2, ptr noundef %3) unnamed_addr #0 {
  %5 = load i32, ptr @ett_ipmi_se_XX_mask, align 4
  %6 = tail call ptr @proto_tree_add_bitmask_text(ptr noundef %2, ptr noundef %0, i32 noundef %1, i32 noundef 1, ptr noundef %3, ptr noundef nonnull @.str.676, i32 noundef %5, ptr noundef nonnull @add_thresholds.threshold_mask, i32 noundef -2147483648, i32 noundef 0)
  %7 = load i32, ptr @hf_ipmi_se_XX_thr_lnc, align 4
  %8 = add nuw nsw i32 %1, 1
  %9 = tail call ptr @proto_tree_add_item(ptr noundef %2, i32 noundef %7, ptr noundef %0, i32 noundef %8, i32 noundef 1, i32 noundef -2147483648)
  %10 = load i32, ptr @hf_ipmi_se_XX_thr_lc, align 4
  %11 = or disjoint i32 %1, 2
  %12 = tail call ptr @proto_tree_add_item(ptr noundef %2, i32 noundef %10, ptr noundef %0, i32 noundef %11, i32 noundef 1, i32 noundef -2147483648)
  %13 = load i32, ptr @hf_ipmi_se_XX_thr_lnr, align 4
  %14 = add nuw nsw i32 %1, 3
  %15 = tail call ptr @proto_tree_add_item(ptr noundef %2, i32 noundef %13, ptr noundef %0, i32 noundef %14, i32 noundef 1, i32 noundef -2147483648)
  %16 = load i32, ptr @hf_ipmi_se_XX_thr_unc, align 4
  %17 = or disjoint i32 %1, 4
  %18 = tail call ptr @proto_tree_add_item(ptr noundef %2, i32 noundef %16, ptr noundef %0, i32 noundef %17, i32 noundef 1, i32 noundef -2147483648)
  %19 = load i32, ptr @hf_ipmi_se_XX_thr_uc, align 4
  %20 = add nuw nsw i32 %1, 5
  %21 = tail call ptr @proto_tree_add_item(ptr noundef %2, i32 noundef %19, ptr noundef %0, i32 noundef %20, i32 noundef 1, i32 noundef -2147483648)
  %22 = load i32, ptr @hf_ipmi_se_XX_thr_unr, align 4
  %23 = or disjoint i32 %1, 6
  %24 = tail call ptr @proto_tree_add_item(ptr noundef %2, i32 noundef %22, ptr noundef %0, i32 noundef %23, i32 noundef 1, i32 noundef -2147483648)
  ret void
}